#include <math.h>
#include <stdio.h>
#include <stdlib.h>
#include <string.h>
#include <iostream>
using namespace std;

int sum=0;
int f(int a,int b)
{
     for(int i=a;i>1;i--)
     {
     if(a%i!=0)
     {continue;}
     else
     {
     if(i>b) 
     {continue;}
     else
     {
     int q;
     q=a/i;
     if(q==1)
     {sum++;}
     else {f(q,i);}
     }
     }
     }
     return sum;
}  

int main()
{
    int n;
    cin>>n;
    for(int i=1;i<=n;i++)
    {
    int num;
    cin>>num;
    int c;
    c=f(num,num);
    cout<<c<<endl;
    sum=0;
    }
    return 0;
}
